Certificate:
    Data:
        Version: 3 (0x2)
        Serial Number: 1 (0x1)
    Signature Algorithm: sha256WithRSAEncryption
        Issuer: C=CN, ST=Fujian, L=Fuzhou, O=EMQ, OU=Broker, CN=www.ruijie.cn
        Validity
            Not Before: Feb 27 08:15:46 2020 GMT
            Not After : Feb 24 08:15:46 2030 GMT
        Subject: C=CN, ST=Fujian, O=EMQ, OU=Broker, CN=Server
        Subject Public Key Info:
            Public Key Algorithm: rsaEncryption
                Public-Key: (1024 bit)
                Modulus:
                    00:a7:40:8f:cb:05:4b:cb:69:8e:71:5f:94:c0:22:
                    c5:46:d9:8e:a1:77:35:1e:c1:88:af:1a:b7:3d:31:
                    79:ad:09:87:d0:ce:4f:83:7a:ff:c2:6f:85:3e:97:
                    8a:b2:6b:5f:5c:05:37:61:db:6d:25:5d:0f:89:88:
                    30:65:65:46:b6:6a:b6:ad:f0:5b:2c:c7:1d:58:89:
                    58:3e:b9:42:21:36:82:2a:23:bc:6b:cf:df:95:b9:
                    33:cd:14:11:a7:30:18:ce:81:45:b7:a6:13:fb:ca:
                    2b:c8:06:27:b8:a1:68:59:86:12:49:aa:0c:c2:d5:
                    ea:07:e5:4c:95:6a:d0:72:e1
                Exponent: 65537 (0x10001)
        X509v3 extensions:
            X509v3 Basic Constraints: 
                CA:FALSE
            X509v3 Key Usage: 
                Digital Signature, Non Repudiation, Key Encipherment
    Signature Algorithm: sha256WithRSAEncryption
         6e:8c:ef:16:e1:45:de:a9:d2:70:7f:62:e0:3b:7f:0e:e6:59:
         52:22:58:5f:26:b3:82:28:e3:d7:e1:bd:cf:d0:1e:ae:95:f4:
         c7:de:e1:46:be:75:75:a4:06:ef:53:b4:5b:32:26:37:ee:7f:
         ee:5e:81:86:96:4d:8c:5e:d9:df:fd:bd:f3:79:a6:13:05:2f:
         52:db:b9:0e:cc:ba:f4:d6:5a:4f:a6:f0:3a:4c:b5:25:eb:ce:
         d1:06:63:d2:2f:7f:45:36:00:96:77:ec:de:c2:cd:7e:0b:ea:
         8d:87:3c:fb:08:b4:80:df:88:9e:73:16:31:2a:b6:e4:67:71:
         61:7d:38:27:cb:0a:1c:a3:21:40:49:6f:be:53:7b:69:55:5f:
         ac:25:fb:fb:35:b1:13:07:c6:a6:1a:4a:b7:25:0f:e3:a4:71:
         24:89:44:c8:87:0d:b2:e1:56:81:e0:40:92:11:cd:e7:84:57:
         19:ff:e8:02:31:58:d5:06:ff:ca:2d:18:c9:61:a8:1a:3c:6b:
         d9:fb:43:57:f9:88:f1:b7:80:bf:78:3d:c0:77:7a:c6:58:c2:
         d7:3f:72:10:f1:28:30:0f:92:6e:25:97:7c:cf:74:46:46:59:
         9b:a0:fb:5b:83:e4:8a:8b:bb:dc:c2:11:c5:3d:f7:d6:fb:36:
         fd:16:da:15
-----BEGIN CERTIFICATE-----
MIICxTCCAa2gAwIBAgIBATANBgkqhkiG9w0BAQsFADBmMQswCQYDVQQGEwJDTjEP
MA0GA1UECAwGRnVqaWFuMQ8wDQYDVQQHDAZGdXpob3UxDDAKBgNVBAoMA0VNUTEP
MA0GA1UECwwGQnJva2VyMRYwFAYDVQQDDA13d3cucnVpamllLmNuMB4XDTIwMDIy
NzA4MTU0NloXDTMwMDIyNDA4MTU0NlowTjELMAkGA1UEBhMCQ04xDzANBgNVBAgM
BkZ1amlhbjEMMAoGA1UECgwDRU1RMQ8wDQYDVQQLDAZCcm9rZXIxDzANBgNVBAMM
BlNlcnZlcjCBnzANBgkqhkiG9w0BAQEFAAOBjQAwgYkCgYEAp0CPywVLy2mOcV+U
wCLFRtmOoXc1HsGIrxq3PTF5rQmH0M5Pg3r/wm+FPpeKsmtfXAU3YdttJV0PiYgw
ZWVGtmq2rfBbLMcdWIlYPrlCITaCKiO8a8/flbkzzRQRpzAYzoFFt6YT+8oryAYn
uKFoWYYSSaoMwtXqB+VMlWrQcuECAwEAAaMaMBgwCQYDVR0TBAIwADALBgNVHQ8E
BAMCBeAwDQYJKoZIhvcNAQELBQADggEBAG6M7xbhRd6p0nB/YuA7fw7mWVIiWF8m
s4Io49fhvc/QHq6V9Mfe4Ua+dXWkBu9TtFsyJjfuf+5egYaWTYxe2d/9vfN5phMF
L1LbuQ7MuvTWWk+m8DpMtSXrztEGY9Ivf0U2AJZ37N7CzX4L6o2HPPsItIDfiJ5z
FjEqtuRncWF9OCfLChyjIUBJb75Te2lVX6wl+/s1sRMHxqYaSrclD+OkcSSJRMiH
DbLhVoHgQJIRzeeEVxn/6AIxWNUG/8otGMlhqBo8a9n7Q1f5iPG3gL94PcB3esZY
wtc/chDxKDAPkm4ll3zPdEZGWZug+1uD5IqLu9zCEcU999b7Nv0W2hU=
-----END CERTIFICATE-----
